target datalayout = "e-m:e-p270:32:32-p271:32:32-p272:64:64-i64:64-i128:128-f80:128-n8:16:32:64-S128"
target triple = "x86_64-pc-linux-gnu"

%struct._uuid_t = type { i16, i8, [16 x i8] }
%struct._wmem_tree_key_t = type { i32, ptr }
%struct._packet_info = type { ptr, ptr, i32, i32, %struct.nstime_t, %struct.nstime_t, %struct.nstime_t, i8, ptr, ptr, ptr, ptr, %struct._address, %struct._address, %struct._address, %struct._address, %struct._address, %struct._address, i32, ptr, i8, [3 x i8], %struct.anon, i32, i32, i32, i32, ptr, i8, ptr, ptr, i16, i16, i32, i32, i16, i32, i32, ptr, ptr, ptr, i8, i8, i16, i16, i16, i32, i16, i16, ptr, ptr, ptr, ptr, ptr, i32, i32 }
%struct.nstime_t = type { i64, i32 }
%struct._address = type { i32, i32, ptr, ptr }
%struct.anon = type { i8, [3 x i8] }
%struct._bluetooth_data_t = type { i32, i32, ptr, ptr, ptr, ptr, ptr, ptr, ptr, ptr, ptr, ptr, ptr, i32, %union.anon }
%union.anon = type { ptr }
%struct._handle_data_t = type { %struct._uuid_t, i32 }

@handle_to_uuid = internal global ptr null, align 8

; Function Attrs: nounwind null_pointer_is_valid sspstrong uwtable
define internal zeroext i1 @is_writeable_response(i8 noundef zeroext %0) #1 {
  %2 = alloca i8, align 1
  store i8 %0, ptr %2, align 1
  %3 = load i8, ptr %2, align 1
  %4 = zext i8 %3 to i32
  %5 = icmp eq i32 %4, 19
  br i1 %5, label %10, label %6

6:                                                ; preds = %1
  %7 = load i8, ptr %2, align 1
  %8 = zext i8 %7 to i32
  %9 = icmp eq i32 %8, 23
  br label %10

10:                                               ; preds = %6, %1
  %11 = phi i1 [ true, %1 ], [ %9, %6 ]
  ret i1 %11
}

; Function Attrs: nounwind null_pointer_is_valid sspstrong uwtable
define internal zeroext i1 @is_readable_response(i8 noundef zeroext %0) #1 {
  %2 = alloca i8, align 1
  store i8 %0, ptr %2, align 1
  %3 = load i8, ptr %2, align 1
  %4 = zext i8 %3 to i32
  %5 = icmp eq i32 %4, 11
  br i1 %5, label %18, label %6

6:                                                ; preds = %1
  %7 = load i8, ptr %2, align 1
  %8 = zext i8 %7 to i32
  %9 = icmp eq i32 %8, 13
  br i1 %9, label %18, label %10

10:                                               ; preds = %6
  %11 = load i8, ptr %2, align 1
  %12 = zext i8 %11 to i32
  %13 = icmp eq i32 %12, 9
  br i1 %13, label %18, label %14

14:                                               ; preds = %10
  %15 = load i8, ptr %2, align 1
  %16 = zext i8 %15 to i32
  %17 = icmp eq i32 %16, 15
  br label %18

18:                                               ; preds = %14, %10, %6, %1
  %19 = phi i1 [ true, %10 ], [ true, %6 ], [ true, %1 ], [ %17, %14 ]
  ret i1 %19
}

; Function Attrs: nounwind null_pointer_is_valid sspstrong uwtable
define internal zeroext i1 @is_writeable_request(i8 noundef zeroext %0) #1 {
  %2 = alloca i8, align 1
  store i8 %0, ptr %2, align 1
  %3 = load i8, ptr %2, align 1
  %4 = zext i8 %3 to i32
  %5 = icmp eq i32 %4, 18
  br i1 %5, label %10, label %6

6:                                                ; preds = %1
  %7 = load i8, ptr %2, align 1
  %8 = zext i8 %7 to i32
  %9 = icmp eq i32 %8, 22
  br label %10

10:                                               ; preds = %6, %1
  %11 = phi i1 [ true, %1 ], [ %9, %6 ]
  ret i1 %11
}

; Function Attrs: nounwind null_pointer_is_valid sspstrong uwtable
define internal zeroext i1 @is_readable_request(i8 noundef zeroext %0) #1 {
  %2 = alloca i8, align 1
  store i8 %0, ptr %2, align 1
  %3 = load i8, ptr %2, align 1
  %4 = zext i8 %3 to i32
  %5 = icmp eq i32 %4, 10
  br i1 %5, label %18, label %6

6:                                                ; preds = %1
  %7 = load i8, ptr %2, align 1
  %8 = zext i8 %7 to i32
  %9 = icmp eq i32 %8, 12
  br i1 %9, label %18, label %10

10:                                               ; preds = %6
  %11 = load i8, ptr %2, align 1
  %12 = zext i8 %11 to i32
  %13 = icmp eq i32 %12, 8
  br i1 %13, label %18, label %14

14:                                               ; preds = %10
  %15 = load i8, ptr %2, align 1
  %16 = zext i8 %15 to i32
  %17 = icmp eq i32 %16, 14
  br label %18

18:                                               ; preds = %14, %10, %6, %1
  %19 = phi i1 [ true, %10 ], [ true, %6 ], [ true, %1 ], [ %17, %14 ]
  ret i1 %19
}

; Function Attrs: null_pointer_is_valid sspstrong uwtable
define internal i32 @get_handle_db_direction(i8 noundef zeroext %0, i32 noundef %1) #0 {
  %3 = alloca i32, align 4
  %4 = alloca i8, align 1
  %5 = alloca i32, align 4
  store i8 %0, ptr %4, align 1
  store i32 %1, ptr %5, align 4
  %6 = load i8, ptr %4, align 1
  %7 = call zeroext i1 @is_readable_request(i8 noundef zeroext %6)
  br i1 %7, label %19, label %8

8:                                                ; preds = %2
  %9 = load i8, ptr %4, align 1
  %10 = call zeroext i1 @is_writeable_request(i8 noundef zeroext %9)
  br i1 %10, label %19, label %11

11:                                               ; preds = %8
  %12 = load i8, ptr %4, align 1
  %13 = zext i8 %12 to i32
  %14 = icmp eq i32 %13, 30
  br i1 %14, label %19, label %15

15:                                               ; preds = %11
  %16 = load i8, ptr %4, align 1
  %17 = zext i8 %16 to i32
  %18 = icmp eq i32 %17, 18
  br i1 %18, label %19, label %24

19:                                               ; preds = %15, %11, %8, %2
  %20 = load i32, ptr %5, align 4
  %21 = icmp ne i32 %20, 0
  %22 = xor i1 %21, true
  %23 = zext i1 %22 to i32
  store i32 %23, ptr %3, align 4
  br label %44

24:                                               ; preds = %15
  %25 = load i8, ptr %4, align 1
  %26 = call zeroext i1 @is_readable_response(i8 noundef zeroext %25)
  br i1 %26, label %30, label %27

27:                                               ; preds = %24
  %28 = load i8, ptr %4, align 1
  %29 = call zeroext i1 @is_writeable_response(i8 noundef zeroext %28)
  br i1 %29, label %30, label %32

30:                                               ; preds = %27, %24
  %31 = load i32, ptr %5, align 4
  store i32 %31, ptr %3, align 4
  br label %44

32:                                               ; preds = %27
  %33 = load i8, ptr %4, align 1
  %34 = zext i8 %33 to i32
  %35 = icmp eq i32 %34, 27
  br i1 %35, label %40, label %36

36:                                               ; preds = %32
  %37 = load i8, ptr %4, align 1
  %38 = zext i8 %37 to i32
  %39 = icmp eq i32 %38, 29
  br i1 %39, label %40, label %42

40:                                               ; preds = %36, %32
  %41 = load i32, ptr %5, align 4
  store i32 %41, ptr %3, align 4
  br label %44

42:                                               ; preds = %36
  %43 = load i32, ptr %5, align 4
  store i32 %43, ptr %3, align 4
  br label %44

44:                                               ; preds = %42, %40, %30, %19
  %45 = load i32, ptr %3, align 4
  ret i32 %45
}

; Function Attrs: alwaysinline nounwind
define internal ptr @memset.inline(ptr %0, i32 %1, i64 %2) #3 {
  %4 = alloca ptr, align 8
  %5 = alloca i32, align 4
  %6 = alloca i64, align 8
  store ptr %0, ptr %4, align 8
  store i32 %1, ptr %5, align 4
  store i64 %2, ptr %6, align 8
  %7 = load ptr, ptr %4, align 8
  %8 = load i32, ptr %5, align 4
  %9 = load i64, ptr %6, align 8
  %10 = load ptr, ptr %4, align 8
  %11 = call i64 @llvm.objectsize.i64.p0(ptr %10, i1 false, i1 true, i1 true)
  %12 = call ptr @__memset_chk(ptr noundef %7, i32 noundef %8, i64 noundef %9, i64 noundef %11) #12
  ret ptr %12
}

; Function Attrs: null_pointer_is_valid sspstrong uwtable
define internal void @get_characteristic_uuid_from_handle(ptr dead_on_unwind noalias writable sret(%struct._uuid_t) align 2 %0, ptr noundef %1, i32 noundef %2, i8 noundef zeroext %3, ptr noundef %4) #0 {
  %6 = alloca ptr, align 8
  %7 = alloca i32, align 4
  %8 = alloca i8, align 1
  %9 = alloca ptr, align 8
  %10 = alloca [5 x %struct._wmem_tree_key_t], align 16
  %11 = alloca i32, align 4
  %12 = alloca i32, align 4
  %13 = alloca ptr, align 8
  %14 = alloca ptr, align 8
  %15 = alloca i32, align 4
  store ptr %1, ptr %6, align 8
  store i32 %2, ptr %7, align 4
  store i8 %3, ptr %8, align 1
  store ptr %4, ptr %9, align 8
  call void @llvm.lifetime.start.p0(i64 80, ptr %10) #12
  call void @llvm.lifetime.start.p0(i64 4, ptr %11) #12
  call void @llvm.lifetime.start.p0(i64 4, ptr %12) #12
  call void @llvm.lifetime.start.p0(i64 8, ptr %13) #12
  call void @llvm.lifetime.start.p0(i64 8, ptr %14) #12
  %16 = call ptr @memset.inline(ptr noundef %0, i32 noundef 0, i64 noundef 20) #12
  %17 = load ptr, ptr %9, align 8
  %18 = icmp ne ptr %17, null
  br i1 %18, label %19, label %91

19:                                               ; preds = %5
  %20 = load ptr, ptr %6, align 8
  %21 = getelementptr inbounds nuw %struct._packet_info, ptr %20, i32 0, i32 3
  %22 = load i32, ptr %21, align 4
  store i32 %22, ptr %11, align 4
  %23 = load i8, ptr %8, align 1
  %24 = load ptr, ptr %6, align 8
  %25 = getelementptr inbounds nuw %struct._packet_info, ptr %24, i32 0, i32 37
  %26 = load i32, ptr %25, align 4
  %27 = call i32 @get_handle_db_direction(i8 noundef zeroext %23, i32 noundef %26)
  store i32 %27, ptr %12, align 4
  %28 = getelementptr [5 x %struct._wmem_tree_key_t], ptr %10, i64 0, i64 0
  %29 = getelementptr inbounds nuw %struct._wmem_tree_key_t, ptr %28, i32 0, i32 0
  store i32 1, ptr %29, align 16
  %30 = load ptr, ptr %9, align 8
  %31 = getelementptr inbounds nuw %struct._bluetooth_data_t, ptr %30, i32 0, i32 0
  %32 = getelementptr [5 x %struct._wmem_tree_key_t], ptr %10, i64 0, i64 0
  %33 = getelementptr inbounds nuw %struct._wmem_tree_key_t, ptr %32, i32 0, i32 1
  store ptr %31, ptr %33, align 8
  %34 = getelementptr [5 x %struct._wmem_tree_key_t], ptr %10, i64 0, i64 1
  %35 = getelementptr inbounds nuw %struct._wmem_tree_key_t, ptr %34, i32 0, i32 0
  store i32 1, ptr %35, align 16
  %36 = load ptr, ptr %9, align 8
  %37 = getelementptr inbounds nuw %struct._bluetooth_data_t, ptr %36, i32 0, i32 1
  %38 = getelementptr [5 x %struct._wmem_tree_key_t], ptr %10, i64 0, i64 1
  %39 = getelementptr inbounds nuw %struct._wmem_tree_key_t, ptr %38, i32 0, i32 1
  store ptr %37, ptr %39, align 8
  %40 = getelementptr [5 x %struct._wmem_tree_key_t], ptr %10, i64 0, i64 2
  %41 = getelementptr inbounds nuw %struct._wmem_tree_key_t, ptr %40, i32 0, i32 0
  store i32 1, ptr %41, align 16
  %42 = getelementptr [5 x %struct._wmem_tree_key_t], ptr %10, i64 0, i64 2
  %43 = getelementptr inbounds nuw %struct._wmem_tree_key_t, ptr %42, i32 0, i32 1
  store ptr %12, ptr %43, align 8
  %44 = getelementptr [5 x %struct._wmem_tree_key_t], ptr %10, i64 0, i64 3
  %45 = getelementptr inbounds nuw %struct._wmem_tree_key_t, ptr %44, i32 0, i32 0
  store i32 1, ptr %45, align 16
  %46 = getelementptr [5 x %struct._wmem_tree_key_t], ptr %10, i64 0, i64 3
  %47 = getelementptr inbounds nuw %struct._wmem_tree_key_t, ptr %46, i32 0, i32 1
  store ptr %7, ptr %47, align 8
  %48 = getelementptr [5 x %struct._wmem_tree_key_t], ptr %10, i64 0, i64 4
  %49 = getelementptr inbounds nuw %struct._wmem_tree_key_t, ptr %48, i32 0, i32 0
  store i32 0, ptr %49, align 16
  %50 = getelementptr [5 x %struct._wmem_tree_key_t], ptr %10, i64 0, i64 4
  %51 = getelementptr inbounds nuw %struct._wmem_tree_key_t, ptr %50, i32 0, i32 1
  store ptr null, ptr %51, align 8
  br label %52

52:                                               ; preds = %87, %19
  %53 = load i32, ptr %7, align 4
  %54 = icmp ugt i32 %53, 0
  br i1 %54, label %55, label %90

55:                                               ; preds = %52
  %56 = load ptr, ptr @handle_to_uuid, align 8
  %57 = getelementptr inbounds [5 x %struct._wmem_tree_key_t], ptr %10, i64 0, i64 0
  %58 = call ptr @wmem_tree_lookup32_array(ptr noundef %56, ptr noundef %57)
  store ptr %58, ptr %14, align 8
  %59 = load ptr, ptr %14, align 8
  %60 = icmp ne ptr %59, null
  br i1 %60, label %61, label %65

61:                                               ; preds = %55
  %62 = load ptr, ptr %14, align 8
  %63 = load i32, ptr %11, align 4
  %64 = call ptr @wmem_tree_lookup32_le(ptr noundef %62, i32 noundef %63)
  br label %66

65:                                               ; preds = %55
  br label %66

66:                                               ; preds = %65, %61
  %67 = phi ptr [ %64, %61 ], [ null, %65 ]
  store ptr %67, ptr %13, align 8
  %68 = load ptr, ptr %13, align 8
  %69 = icmp ne ptr %68, null
  br i1 %69, label %70, label %76

70:                                               ; preds = %66
  %71 = load ptr, ptr %13, align 8
  %72 = getelementptr inbounds nuw %struct._handle_data_t, ptr %71, i32 0, i32 1
  %73 = load i32, ptr %72, align 4
  %74 = icmp eq i32 %73, 0
  br i1 %74, label %75, label %76

75:                                               ; preds = %70
  store i32 1, ptr %15, align 4
  br label %92

76:                                               ; preds = %70, %66
  %77 = load ptr, ptr %13, align 8
  %78 = icmp ne ptr %77, null
  br i1 %78, label %79, label %87

79:                                               ; preds = %76
  %80 = load ptr, ptr %13, align 8
  %81 = getelementptr inbounds nuw %struct._handle_data_t, ptr %80, i32 0, i32 1
  %82 = load i32, ptr %81, align 4
  %83 = icmp eq i32 %82, 1
  br i1 %83, label %84, label %87

84:                                               ; preds = %79
  %85 = load ptr, ptr %13, align 8
  %86 = getelementptr inbounds nuw %struct._handle_data_t, ptr %85, i32 0, i32 0
  call void @llvm.memcpy.p0.p0.i64(ptr align 2 %0, ptr align 4 %86, i64 20, i1 false)
  store i32 1, ptr %15, align 4
  br label %92

87:                                               ; preds = %79, %76
  %88 = load i32, ptr %7, align 4
  %89 = sub i32 %88, 1
  store i32 %89, ptr %7, align 4
  br label %52, !llvm.loop !29

90:                                               ; preds = %52
  br label %91

91:                                               ; preds = %90, %5
  store i32 1, ptr %15, align 4
  br label %92

92:                                               ; preds = %91, %84, %75
  call void @llvm.lifetime.end.p0(i64 8, ptr %14) #12
  call void @llvm.lifetime.end.p0(i64 8, ptr %13) #12
  call void @llvm.lifetime.end.p0(i64 4, ptr %12) #12
  call void @llvm.lifetime.end.p0(i64 4, ptr %11) #12
  call void @llvm.lifetime.end.p0(i64 80, ptr %10) #12
  ret void
}