; Function Attrs: null_pointer_is_valid sspstrong uwtable
define internal fastcc void @get_characteristic_uuid_from_handle(ptr dead_on_unwind noalias writable align 2 %0, ptr noundef readonly captures(none) %1, i32 noundef range(i32 0, 65536) %2, i8 noundef zeroext %3, ptr noundef %4) unnamed_addr #1 {
  %6 = alloca i32, align 4
  %7 = alloca [5 x %struct._wmem_tree_key_t], align 16
  %8 = alloca i32, align 4
  store i32 %2, ptr %6, align 4
  call void @llvm.lifetime.start.p0(i64 80, ptr nonnull %7) #14
  call void @llvm.lifetime.start.p0(i64 4, ptr nonnull %8) #14
  tail call void @llvm.memset.p0.i64(ptr noundef align 2 dereferenceable(20) %0, i8 noundef 0, i64 noundef 20, i1 noundef false) #14
  %.not = icmp eq ptr %4, null
  br i1 %.not, label %.loopexit, label %9

9:                                                ; preds = %5
  %10 = getelementptr inbounds nuw i8, ptr %1, i64 20
  %11 = load i32, ptr %10, align 4
  %12 = getelementptr inbounds nuw i8, ptr %1, i64 348
  %13 = load i32, ptr %12, align 4
  %14 = and i8 %3, -7
  %switch.selectcmp.i.i = icmp eq i8 %14, 8
  %15 = and i8 %3, -5
  %16 = icmp eq i8 %15, 18
  %or.cond.i = or i1 %switch.selectcmp.i.i, %16
  %cond.i = icmp eq i8 %3, 30
  %or.cond24.i = or i1 %cond.i, %or.cond.i
  %.not.i = icmp eq i32 %13, 0
  %17 = zext i1 %.not.i to i32
  %.0.i = select i1 %or.cond24.i, i32 %17, i32 %13
  store i32 %.0.i, ptr %8, align 4
  store i32 1, ptr %7, align 16
  %18 = getelementptr inbounds nuw i8, ptr %7, i64 8
  store ptr %4, ptr %18, align 8
  %19 = getelementptr inbounds nuw i8, ptr %7, i64 16
  store i32 1, ptr %19, align 16
  %20 = getelementptr inbounds nuw i8, ptr %4, i64 4
  %21 = getelementptr inbounds nuw i8, ptr %7, i64 24
  store ptr %20, ptr %21, align 8
  %22 = getelementptr inbounds nuw i8, ptr %7, i64 32
  store i32 1, ptr %22, align 16
  %23 = getelementptr inbounds nuw i8, ptr %7, i64 40
  store ptr %8, ptr %23, align 8
  %24 = getelementptr inbounds nuw i8, ptr %7, i64 48
  store i32 1, ptr %24, align 16
  %25 = getelementptr inbounds nuw i8, ptr %7, i64 56
  store ptr %6, ptr %25, align 8
  %26 = getelementptr inbounds nuw i8, ptr %7, i64 64
  store i32 0, ptr %26, align 16
  %27 = getelementptr inbounds nuw i8, ptr %7, i64 72
  store ptr null, ptr %27, align 8
  %.not1519 = icmp eq i32 %2, 0
  br i1 %.not1519, label %.loopexit, label %.lr.ph

.lr.ph:                                           ; preds = %9, %.critedge
  %28 = load ptr, ptr @handle_to_uuid, align 8
  %29 = call ptr @wmem_tree_lookup32_array(ptr noundef %28, ptr noundef nonnull %7)
  %.not16 = icmp eq ptr %29, null
  br i1 %.not16, label %.critedge, label %30

30:                                               ; preds = %.lr.ph
  %31 = call ptr @wmem_tree_lookup32_le(ptr noundef nonnull %29, i32 noundef %11)
  %.not17 = icmp eq ptr %31, null
  br i1 %.not17, label %.critedge, label %32

32:                                               ; preds = %30
  %33 = getelementptr inbounds nuw i8, ptr %31, i64 20
  %34 = load i32, ptr %33, align 4
  switch i32 %34, label %.critedge [
    i32 0, label %.loopexit
    i32 1, label %35
  ]

35:                                               ; preds = %32
  call void @llvm.memcpy.p0.p0.i64(ptr noundef align 2 dereferenceable(20) %0, ptr noundef nonnull align 4 dereferenceable(20) %31, i64 20, i1 false)
  br label %.loopexit

.critedge:                                        ; preds = %32, %.lr.ph, %30
  %36 = load i32, ptr %6, align 4
  %37 = add i32 %36, -1
  store i32 %37, ptr %6, align 4
  %.not15 = icmp eq i32 %37, 0
  br i1 %.not15, label %.loopexit, label %.lr.ph, !llvm.loop !37

.loopexit:                                        ; preds = %.critedge, %32, %9, %5, %35
  call void @llvm.lifetime.end.p0(i64 4, ptr nonnull %8) #14
  call void @llvm.lifetime.end.p0(i64 80, ptr nonnull %7) #14
  ret void
}